; Function Attrs: mustprogress nofree norecurse nosync nounwind memory(readwrite, argmem: write, inaccessiblemem: none) uwtable
define void @_ZN11TransTableSC2Ev(ptr nocapture noundef nonnull writeonly align 8 dereferenceable(2396) %0) unnamed_addr #3 align 2 personality ptr @__gxx_personality_v0 {
  store ptr getelementptr inbounds inrange(-16, 208) (i8, ptr @_ZTV11TransTableS, i64 16), ptr %0, align 8
  %2 = getelementptr inbounds nuw i8, ptr %0, i64 2256
  tail call void @llvm.memset.p0.i64(ptr noundef nonnull align 8 dereferenceable(24) %2, i8 0, i64 24, i1 false)
  %.b1 = load i1, ptr @_ZL13_constantsSet, align 1
  br i1 %.b1, label %_ZN11TransTableS12SetConstantsEv.exit, label %3

3:                                                ; preds = %1
  store i1 true, ptr @_ZL13_constantsSet, align 1
  store i32 15, ptr @_ZL12TTlowestRank, align 16
  br label %4

4:                                                ; preds = %4, %3
  %indvars.iv.i = phi i64 [ 1, %3 ], [ %indvars.iv.next.i, %4 ]
  %.0910.i = phi i32 [ 1, %3 ], [ %spec.select.i, %4 ]
  %5 = shl i32 %.0910.i, 1
  %6 = zext i32 %5 to i64
  %.not.i = icmp ult i64 %indvars.iv.i, %6
  %spec.select.i = select i1 %.not.i, i32 %.0910.i, i32 %5
  %7 = trunc nuw nsw i64 %indvars.iv.i to i32
  %8 = xor i32 %spec.select.i, %7
  %9 = zext i32 %8 to i64
  %10 = getelementptr inbounds [8192 x i32], ptr @_ZL12TTlowestRank, i64 0, i64 %9
  %11 = load i32, ptr %10, align 4
  %12 = add nsw i32 %11, -1
  %13 = getelementptr inbounds [8192 x i32], ptr @_ZL12TTlowestRank, i64 0, i64 %indvars.iv.i
  store i32 %12, ptr %13, align 4
  %indvars.iv.next.i = add nuw nsw i64 %indvars.iv.i, 1
  %exitcond.not.i = icmp eq i64 %indvars.iv.next.i, 8192
  br i1 %exitcond.not.i, label %_ZN11TransTableS12SetConstantsEv.exit, label %4, !llvm.loop !4

_ZN11TransTableS12SetConstantsEv.exit:            ; preds = %4, %1
  %14 = getelementptr inbounds nuw i8, ptr %0, i64 2392
  store i32 0, ptr %14, align 8
  ret void
}